target datalayout = "e-m:e-p270:32:32-p271:32:32-p272:64:64-i64:64-i128:128-f80:128-n8:16:32:64-S128"
target triple = "x86_64-pc-linux-gnu"

%struct.notes_tree = type { ptr, ptr, ptr, ptr, ptr, ptr, i32, i32 }
%struct.object_id = type { [32 x i8], i32 }

@.str = private unnamed_addr constant [39 x i8] c"Failed to write notes tree to database\00", align 1
@the_repository = external global ptr, align 8
@.str.1 = private unnamed_addr constant [31 x i8] c"Failed to find/parse commit %s\00", align 1
@.str.2 = private unnamed_addr constant [40 x i8] c"Failed to commit notes tree to database\00", align 1

; Function Attrs: inlinehint nounwind uwtable
define internal i32 @repo_parse_commit(ptr noundef %0, ptr noundef %1) #4 {
  %3 = alloca ptr, align 8
  %4 = alloca ptr, align 8
  store ptr %0, ptr %3, align 8, !tbaa !4
  store ptr %1, ptr %4, align 8, !tbaa !24
  %5 = load ptr, ptr %3, align 8, !tbaa !4
  %6 = load ptr, ptr %4, align 8, !tbaa !24
  %7 = call i32 @repo_parse_commit_gently(ptr noundef %5, ptr noundef %6, i32 noundef 0)
  ret i32 %7
}

; Function Attrs: nounwind uwtable
define dso_local void @create_notes_commit(ptr noundef %0, ptr noundef %1, ptr noundef %2, ptr noundef %3, i64 noundef %4, ptr noundef %5) #0 {
  %7 = alloca ptr, align 8
  %8 = alloca ptr, align 8
  %9 = alloca ptr, align 8
  %10 = alloca ptr, align 8
  %11 = alloca i64, align 8
  %12 = alloca ptr, align 8
  %13 = alloca ptr, align 8
  %14 = alloca %struct.object_id, align 4
  %15 = alloca %struct.object_id, align 4
  %16 = alloca ptr, align 8
  store ptr %0, ptr %7, align 8, !tbaa !4
  store ptr %1, ptr %8, align 8, !tbaa !9
  store ptr %2, ptr %9, align 8, !tbaa !11
  store ptr %3, ptr %10, align 8, !tbaa !13
  store i64 %4, ptr %11, align 8, !tbaa !15
  store ptr %5, ptr %12, align 8, !tbaa !17
  call void @llvm.lifetime.start.p0(i64 8, ptr %13) #8
  store ptr null, ptr %13, align 8, !tbaa !11
  call void @llvm.lifetime.start.p0(i64 36, ptr %14) #8
  %17 = load ptr, ptr %8, align 8, !tbaa !9
  %18 = call i32 @write_notes_tree(ptr noundef %17, ptr noundef %14)
  %19 = icmp ne i32 %18, 0
  br i1 %19, label %20, label %21

20:                                               ; preds = %6
  call void (ptr, ...) @die(ptr noundef @.str) #9
  unreachable

21:                                               ; preds = %6
  %22 = load ptr, ptr %9, align 8, !tbaa !11
  %23 = icmp ne ptr %22, null
  br i1 %23, label %48, label %24

24:                                               ; preds = %21
  call void @llvm.lifetime.start.p0(i64 36, ptr %15) #8
  %25 = load ptr, ptr @the_repository, align 8, !tbaa !4
  %26 = call ptr @get_main_ref_store(ptr noundef %25)
  %27 = load ptr, ptr %8, align 8, !tbaa !9
  %28 = getelementptr inbounds nuw %struct.notes_tree, ptr %27, i32 0, i32 3
  %29 = load ptr, ptr %28, align 8, !tbaa !19
  %30 = call i32 @refs_read_ref(ptr noundef %26, ptr noundef %29, ptr noundef %15)
  %31 = icmp ne i32 %30, 0
  br i1 %31, label %47, label %32

32:                                               ; preds = %24
  call void @llvm.lifetime.start.p0(i64 8, ptr %16) #8
  %33 = load ptr, ptr %7, align 8, !tbaa !4
  %34 = call ptr @lookup_commit(ptr noundef %33, ptr noundef %15)
  store ptr %34, ptr %16, align 8, !tbaa !24
  %35 = load ptr, ptr %7, align 8, !tbaa !4
  %36 = load ptr, ptr %16, align 8, !tbaa !24
  %37 = call i32 @repo_parse_commit(ptr noundef %35, ptr noundef %36)
  %38 = icmp ne i32 %37, 0
  br i1 %38, label %39, label %43

39:                                               ; preds = %32
  %40 = load ptr, ptr %8, align 8, !tbaa !9
  %41 = getelementptr inbounds nuw %struct.notes_tree, ptr %40, i32 0, i32 3
  %42 = load ptr, ptr %41, align 8, !tbaa !19
  call void (ptr, ...) @die(ptr noundef @.str.1, ptr noundef %42) #9
  unreachable

43:                                               ; preds = %32
  %44 = load ptr, ptr %16, align 8, !tbaa !24
  %45 = call ptr @commit_list_insert(ptr noundef %44, ptr noundef %13)
  %46 = load ptr, ptr %13, align 8, !tbaa !11
  store ptr %46, ptr %9, align 8, !tbaa !11
  call void @llvm.lifetime.end.p0(i64 8, ptr %16) #8
  br label %47

47:                                               ; preds = %43, %24
  call void @llvm.lifetime.end.p0(i64 36, ptr %15) #8
  br label %48

48:                                               ; preds = %47, %21
  %49 = load ptr, ptr %10, align 8, !tbaa !13
  %50 = load i64, ptr %11, align 8, !tbaa !15
  %51 = load ptr, ptr %9, align 8, !tbaa !11
  %52 = load ptr, ptr %12, align 8, !tbaa !17
  %53 = call i32 @commit_tree(ptr noundef %49, i64 noundef %50, ptr noundef %14, ptr noundef %51, ptr noundef %52, ptr noundef null, ptr noundef null)
  %54 = icmp ne i32 %53, 0
  br i1 %54, label %55, label %56

55:                                               ; preds = %48
  call void (ptr, ...) @die(ptr noundef @.str.2) #9
  unreachable

56:                                               ; preds = %48
  %57 = load ptr, ptr %13, align 8, !tbaa !11
  call void @free_commit_list(ptr noundef %57)
  call void @llvm.lifetime.end.p0(i64 36, ptr %14) #8
  call void @llvm.lifetime.end.p0(i64 8, ptr %13) #8
  ret void
}