; Function Attrs: nounwind uwtable
define dso_local void @create_notes_commit(ptr noundef %0, ptr noundef %1, ptr noundef %2, ptr noundef %3, i64 noundef %4, ptr noundef %5) local_unnamed_addr #0 {
  %7 = alloca ptr, align 8
  %8 = alloca %struct.object_id, align 4
  %9 = alloca %struct.object_id, align 4
  call void @llvm.lifetime.start.p0(i64 8, ptr nonnull %7) #12
  store ptr null, ptr %7, align 8, !tbaa !4
  call void @llvm.lifetime.start.p0(i64 36, ptr nonnull %8) #12
  %10 = call i32 @write_notes_tree(ptr noundef %1, ptr noundef nonnull %8) #12
  %.not = icmp eq i32 %10, 0
  br i1 %.not, label %12, label %11

11:                                               ; preds = %6
  call void (ptr, ...) @die(ptr noundef nonnull @.str) #13
  unreachable

12:                                               ; preds = %6
  %.not13 = icmp eq ptr %2, null
  br i1 %.not13, label %13, label %28

13:                                               ; preds = %12
  call void @llvm.lifetime.start.p0(i64 36, ptr nonnull %9) #12
  %14 = load ptr, ptr @the_repository, align 8, !tbaa !9
  %15 = call ptr @get_main_ref_store(ptr noundef %14) #12
  %16 = getelementptr inbounds nuw i8, ptr %1, i64 24
  %17 = load ptr, ptr %16, align 8, !tbaa !11
  %18 = call i32 @refs_read_ref(ptr noundef %15, ptr noundef %17, ptr noundef nonnull %9) #12
  %.not14 = icmp eq i32 %18, 0
  br i1 %.not14, label %19, label %27

19:                                               ; preds = %13
  %20 = call ptr @lookup_commit(ptr noundef %0, ptr noundef nonnull %9) #12
  %21 = call i32 @repo_parse_commit_gently(ptr noundef %0, ptr noundef %20, i32 noundef 0) #12
  %.not15 = icmp eq i32 %21, 0
  br i1 %.not15, label %24, label %22

22:                                               ; preds = %19
  %23 = load ptr, ptr %16, align 8, !tbaa !11
  call void (ptr, ...) @die(ptr noundef nonnull @.str.1, ptr noundef %23) #13
  unreachable

24:                                               ; preds = %19
  %25 = call ptr @commit_list_insert(ptr noundef %20, ptr noundef nonnull %7) #12
  %26 = load ptr, ptr %7, align 8, !tbaa !4
  br label %27

27:                                               ; preds = %24, %13
  %.1 = phi ptr [ null, %13 ], [ %26, %24 ]
  call void @llvm.lifetime.end.p0(i64 36, ptr nonnull %9) #12
  br label %28

28:                                               ; preds = %27, %12
  %.0 = phi ptr [ %2, %12 ], [ %.1, %27 ]
  %29 = call i32 @commit_tree(ptr noundef %3, i64 noundef %4, ptr noundef nonnull %8, ptr noundef %.0, ptr noundef %5, ptr noundef null, ptr noundef null) #12
  %.not16 = icmp eq i32 %29, 0
  br i1 %.not16, label %31, label %30

30:                                               ; preds = %28
  call void (ptr, ...) @die(ptr noundef nonnull @.str.2) #13
  unreachable

31:                                               ; preds = %28
  %32 = load ptr, ptr %7, align 8, !tbaa !4
  call void @free_commit_list(ptr noundef %32) #12
  call void @llvm.lifetime.end.p0(i64 36, ptr nonnull %8) #12
  call void @llvm.lifetime.end.p0(i64 8, ptr nonnull %7) #12
  ret void
}